(dp0
S'paths'
p1
(lp2
(lp3
S'M-1-1'
p4
aS'T-3-2'
p5
aa(lp6
S'M-1-1'
p7
aS'T-3-2'
p8
aa(lp9
S'M-1-1'
p10
aS'T-3-2'
p11
aasS'temporary'
p12
(lp13
(lp14
S'M-7-1'
p15
aS'M-1-1'
p16
aasS'blocked'
p17
(lp18
S'X3'
p19
aS'X4'
p20
as.